ccopy_reg
_reconstructor
p0
(cauctionSimulator.hw4.pricePrediction.pointSCPP
pointSCPP
p1
c__builtin__
object
p2
Ntp3
Rp4
(dp5
S'm'
p6
L5L
sS'data'
p7
cnumpy.core.multiarray
_reconstruct
p8
(cnumpy
ndarray
p9
(I0
tp10
S'b'
p11
tp12
Rp13
(I1
(L5L
tp14
cnumpy
dtype
p15
(S'f8'
p16
I0
I1
tp17
Rp18
(I3
S'<'
p19
NNNI-1
I-1
I0
tp20
bI00
S'*\xde\x05\xaf\xa6\xce @\x7f?]g\x95\x1f\x17@\xa3\x8a\x0f\xa7\xde\xc0\n@\xd0\x1e\x03\x02\x01s\xf6?\x00\x1d\xfa\xd1d,\xd6?'
p21
tp22
bsb.