ccopy_reg
_reconstructor
p0
(cauctionSimulator.hw4.pricePrediction.pointSCPP
pointSCPP
p1
c__builtin__
object
p2
Ntp3
Rp4
(dp5
S'm'
p6
L5L
sS'data'
p7
cnumpy.core.multiarray
_reconstruct
p8
(cnumpy
ndarray
p9
(I0
tp10
S'b'
p11
tp12
Rp13
(I1
(L5L
tp14
cnumpy
dtype
p15
(S'f8'
p16
I0
I1
tp17
Rp18
(I3
S'<'
p19
NNNI-1
I-1
I0
tp20
bI00
S'bt{\x87\x1aA!@"\x90p\xe0\xbc+\x17@\xa3\xfd\xc3\x17xK\x0b@\xa8\x84\x0f\x97\xc8w\xf6?\xacG\xf2J\x1c\x08\xd6?'
p21
tp22
bsb.